target datalayout = "e-m:e-p270:32:32-p271:32:32-p272:64:64-i64:64-i128:128-f80:128-n8:16:32:64-S128"
target triple = "x86_64-unknown-linux-gnu"

%"class.std::__cxx11::basic_string" = type { %"struct.std::__cxx11::basic_string<char>::_Alloc_hider", i64, %union.anon }
%"struct.std::__cxx11::basic_string<char>::_Alloc_hider" = type { ptr }
%union.anon = type { i64, [8 x i8] }
%"class.flatbuffers::(anonymous namespace)::FBSCodeGenerator" = type <{ %"class.flatbuffers::CodeGenerator", i8, [7 x i8] }>
%"class.flatbuffers::CodeGenerator" = type { ptr, %"class.std::__cxx11::basic_string" }

@stderr = external global ptr, align 8
@.str = private unnamed_addr constant [98 x i8] c"When you use --proto, that you should check for conformity yourself, using the existing --conform\00", align 1
@.str.1 = private unnamed_addr constant [5 x i8] c".fbs\00", align 1

; Function Attrs: mustprogress uwtable
define linkonce_odr dso_local noundef zeroext i1 @_ZN11flatbuffers8SaveFileEPKcRKNSt7__cxx1112basic_stringIcSt11char_traitsIcESaIcEEEb(ptr noundef %name, ptr noundef nonnull align 8 dereferenceable(32) %buf, i1 noundef zeroext %binary) #0 comdat {
entry:
  %name.addr = alloca ptr, align 8
  %buf.addr = alloca ptr, align 8
  %binary.addr = alloca i8, align 1
  store ptr %name, ptr %name.addr, align 8
  store ptr %buf, ptr %buf.addr, align 8
  %frombool = zext i1 %binary to i8
  store i8 %frombool, ptr %binary.addr, align 1
  %0 = load ptr, ptr %name.addr, align 8
  %1 = load ptr, ptr %buf.addr, align 8
  %call = call noundef ptr @_ZNKSt7__cxx1112basic_stringIcSt11char_traitsIcESaIcEE5c_strEv(ptr noundef nonnull align 8 dereferenceable(32) %1) #12
  %2 = load ptr, ptr %buf.addr, align 8
  %call1 = call noundef i64 @_ZNKSt7__cxx1112basic_stringIcSt11char_traitsIcESaIcEE4sizeEv(ptr noundef nonnull align 8 dereferenceable(32) %2) #12
  %3 = load i8, ptr %binary.addr, align 1
  %tobool = trunc i8 %3 to i1
  %call2 = call noundef zeroext i1 @_ZN11flatbuffers8SaveFileEPKcS1_mb(ptr noundef %0, ptr noundef %call, i64 noundef %call1, i1 noundef zeroext %tobool)
  ret i1 %call2
}

; Function Attrs: mustprogress uwtable
define linkonce_odr dso_local void @_ZStplIcSt11char_traitsIcESaIcEENSt7__cxx1112basic_stringIT_T0_T1_EEOS8_PKS5_(ptr noalias sret(%"class.std::__cxx11::basic_string") align 8 %agg.result, ptr noundef nonnull align 8 dereferenceable(32) %__lhs, ptr noundef %__rhs) #0 comdat {
entry:
  %result.ptr = alloca ptr, align 8
  %__lhs.addr = alloca ptr, align 8
  %__rhs.addr = alloca ptr, align 8
  store ptr %agg.result, ptr %result.ptr, align 8
  store ptr %__lhs, ptr %__lhs.addr, align 8
  store ptr %__rhs, ptr %__rhs.addr, align 8
  %0 = load ptr, ptr %__lhs.addr, align 8
  %1 = load ptr, ptr %__rhs.addr, align 8
  %call = call noundef nonnull align 8 dereferenceable(32) ptr @_ZNSt7__cxx1112basic_stringIcSt11char_traitsIcESaIcEE6appendEPKc(ptr noundef nonnull align 8 dereferenceable(32) %0, ptr noundef %1)
  call void @_ZNSt7__cxx1112basic_stringIcSt11char_traitsIcESaIcEEC1EOS4_(ptr noundef nonnull align 8 dereferenceable(32) %agg.result, ptr noundef nonnull align 8 dereferenceable(32) %call) #12
  ret void
}

; Function Attrs: mustprogress uwtable
define linkonce_odr dso_local void @_ZStplIcSt11char_traitsIcESaIcEENSt7__cxx1112basic_stringIT_T0_T1_EERKS8_SA_(ptr noalias sret(%"class.std::__cxx11::basic_string") align 8 %agg.result, ptr noundef nonnull align 8 dereferenceable(32) %__lhs, ptr noundef nonnull align 8 dereferenceable(32) %__rhs) #0 comdat personality ptr @__gxx_personality_v0 {
entry:
  %result.ptr = alloca ptr, align 8
  %__lhs.addr = alloca ptr, align 8
  %__rhs.addr = alloca ptr, align 8
  %nrvo = alloca i1, align 1
  %exn.slot = alloca ptr, align 8
  %ehselector.slot = alloca i32, align 4
  store ptr %agg.result, ptr %result.ptr, align 8
  store ptr %__lhs, ptr %__lhs.addr, align 8
  store ptr %__rhs, ptr %__rhs.addr, align 8
  store i1 false, ptr %nrvo, align 1
  %0 = load ptr, ptr %__lhs.addr, align 8
  call void @_ZNSt7__cxx1112basic_stringIcSt11char_traitsIcESaIcEEC1ERKS4_(ptr noundef nonnull align 8 dereferenceable(32) %agg.result, ptr noundef nonnull align 8 dereferenceable(32) %0)
  %1 = load ptr, ptr %__rhs.addr, align 8
  %call = invoke noundef nonnull align 8 dereferenceable(32) ptr @_ZNSt7__cxx1112basic_stringIcSt11char_traitsIcESaIcEE6appendERKS4_(ptr noundef nonnull align 8 dereferenceable(32) %agg.result, ptr noundef nonnull align 8 dereferenceable(32) %1)
          to label %invoke.cont unwind label %lpad

invoke.cont:                                      ; preds = %entry
  store i1 true, ptr %nrvo, align 1
  %nrvo.val = load i1, ptr %nrvo, align 1
  br i1 %nrvo.val, label %nrvo.skipdtor, label %nrvo.unused

lpad:                                             ; preds = %entry
  %2 = landingpad { ptr, i32 }
          cleanup
  %3 = extractvalue { ptr, i32 } %2, 0
  store ptr %3, ptr %exn.slot, align 8
  %4 = extractvalue { ptr, i32 } %2, 1
  store i32 %4, ptr %ehselector.slot, align 4
  call void @_ZNSt7__cxx1112basic_stringIcSt11char_traitsIcESaIcEED1Ev(ptr noundef nonnull align 8 dereferenceable(32) %agg.result) #12
  br label %eh.resume

nrvo.unused:                                      ; preds = %invoke.cont
  call void @_ZNSt7__cxx1112basic_stringIcSt11char_traitsIcESaIcEED1Ev(ptr noundef nonnull align 8 dereferenceable(32) %agg.result) #12
  br label %nrvo.skipdtor

nrvo.skipdtor:                                    ; preds = %nrvo.unused, %invoke.cont
  ret void

eh.resume:                                        ; preds = %lpad
  %exn = load ptr, ptr %exn.slot, align 8
  %sel = load i32, ptr %ehselector.slot, align 4
  %lpad.val = insertvalue { ptr, i32 } poison, ptr %exn, 0
  %lpad.val1 = insertvalue { ptr, i32 } %lpad.val, i32 %sel, 1
  resume { ptr, i32 } %lpad.val1
}

; Function Attrs: mustprogress uwtable
define internal noundef zeroext i1 @_ZN11flatbuffers12_GLOBAL__N_111GenerateFBSERKNS_6ParserERKNSt7__cxx1112basic_stringIcSt11char_traitsIcESaIcEEESB_b(ptr noundef nonnull align 8 dereferenceable(1784) %parser, ptr noundef nonnull align 8 dereferenceable(32) %path, ptr noundef nonnull align 8 dereferenceable(32) %file_name, i1 noundef zeroext %no_log) #0 personality ptr @__gxx_personality_v0 {
entry:
  %retval = alloca i1, align 1
  %parser.addr = alloca ptr, align 8
  %path.addr = alloca ptr, align 8
  %file_name.addr = alloca ptr, align 8
  %no_log.addr = alloca i8, align 1
  %fbs = alloca %"class.std::__cxx11::basic_string", align 8
  %cleanup.dest.slot = alloca i32, align 4
  %exn.slot = alloca ptr, align 8
  %ehselector.slot = alloca i32, align 4
  %ref.tmp = alloca %"class.std::__cxx11::basic_string", align 8
  %ref.tmp5 = alloca %"class.std::__cxx11::basic_string", align 8
  store ptr %parser, ptr %parser.addr, align 8
  store ptr %path, ptr %path.addr, align 8
  store ptr %file_name, ptr %file_name.addr, align 8
  %frombool = zext i1 %no_log to i8
  store i8 %frombool, ptr %no_log.addr, align 1
  %0 = load ptr, ptr %parser.addr, align 8
  %1 = load ptr, ptr %file_name.addr, align 8
  %2 = load i8, ptr %no_log.addr, align 1
  %tobool = trunc i8 %2 to i1
  call void @_ZN11flatbuffers12_GLOBAL__N_111GenerateFBSERKNS_6ParserERKNSt7__cxx1112basic_stringIcSt11char_traitsIcESaIcEEEb(ptr sret(%"class.std::__cxx11::basic_string") align 8 %fbs, ptr noundef nonnull align 8 dereferenceable(1784) %0, ptr noundef nonnull align 8 dereferenceable(32) %1, i1 noundef zeroext %tobool)
  %call = call noundef zeroext i1 @_ZNKSt7__cxx1112basic_stringIcSt11char_traitsIcESaIcEE5emptyEv(ptr noundef nonnull align 8 dereferenceable(32) %fbs) #12
  br i1 %call, label %if.then, label %if.end

if.then:                                          ; preds = %entry
  store i1 false, ptr %retval, align 1
  store i32 1, ptr %cleanup.dest.slot, align 4
  br label %cleanup

if.end:                                           ; preds = %entry
  %3 = load i8, ptr %no_log.addr, align 1
  %tobool1 = trunc i8 %3 to i1
  br i1 %tobool1, label %if.end4, label %if.then2

if.then2:                                         ; preds = %if.end
  %4 = load ptr, ptr @stderr, align 8
  %call3 = invoke i32 (ptr, ptr, ...) @fprintf(ptr noundef %4, ptr noundef @.str)
          to label %invoke.cont unwind label %lpad

invoke.cont:                                      ; preds = %if.then2
  br label %if.end4

lpad:                                             ; preds = %if.end4, %if.then2
  %5 = landingpad { ptr, i32 }
          cleanup
  %6 = extractvalue { ptr, i32 } %5, 0
  store ptr %6, ptr %exn.slot, align 8
  %7 = extractvalue { ptr, i32 } %5, 1
  store i32 %7, ptr %ehselector.slot, align 4
  br label %ehcleanup13

if.end4:                                          ; preds = %invoke.cont, %if.end
  %8 = load ptr, ptr %path.addr, align 8
  %9 = load ptr, ptr %file_name.addr, align 8
  invoke void @_ZStplIcSt11char_traitsIcESaIcEENSt7__cxx1112basic_stringIT_T0_T1_EERKS8_SA_(ptr sret(%"class.std::__cxx11::basic_string") align 8 %ref.tmp5, ptr noundef nonnull align 8 dereferenceable(32) %8, ptr noundef nonnull align 8 dereferenceable(32) %9)
          to label %invoke.cont6 unwind label %lpad

invoke.cont6:                                     ; preds = %if.end4
  invoke void @_ZStplIcSt11char_traitsIcESaIcEENSt7__cxx1112basic_stringIT_T0_T1_EEOS8_PKS5_(ptr sret(%"class.std::__cxx11::basic_string") align 8 %ref.tmp, ptr noundef nonnull align 8 dereferenceable(32) %ref.tmp5, ptr noundef @.str.1)
          to label %invoke.cont8 unwind label %lpad7

invoke.cont8:                                     ; preds = %invoke.cont6
  %call9 = call noundef ptr @_ZNKSt7__cxx1112basic_stringIcSt11char_traitsIcESaIcEE5c_strEv(ptr noundef nonnull align 8 dereferenceable(32) %ref.tmp) #12
  %call12 = invoke noundef zeroext i1 @_ZN11flatbuffers8SaveFileEPKcRKNSt7__cxx1112basic_stringIcSt11char_traitsIcESaIcEEEb(ptr noundef %call9, ptr noundef nonnull align 8 dereferenceable(32) %fbs, i1 noundef zeroext false)
          to label %invoke.cont11 unwind label %lpad10

invoke.cont11:                                    ; preds = %invoke.cont8
  store i1 %call12, ptr %retval, align 1
  call void @_ZNSt7__cxx1112basic_stringIcSt11char_traitsIcESaIcEED1Ev(ptr noundef nonnull align 8 dereferenceable(32) %ref.tmp) #12
  call void @_ZNSt7__cxx1112basic_stringIcSt11char_traitsIcESaIcEED1Ev(ptr noundef nonnull align 8 dereferenceable(32) %ref.tmp5) #12
  store i32 1, ptr %cleanup.dest.slot, align 4
  br label %cleanup

lpad7:                                            ; preds = %invoke.cont6
  %10 = landingpad { ptr, i32 }
          cleanup
  %11 = extractvalue { ptr, i32 } %10, 0
  store ptr %11, ptr %exn.slot, align 8
  %12 = extractvalue { ptr, i32 } %10, 1
  store i32 %12, ptr %ehselector.slot, align 4
  br label %ehcleanup

lpad10:                                           ; preds = %invoke.cont8
  %13 = landingpad { ptr, i32 }
          cleanup
  %14 = extractvalue { ptr, i32 } %13, 0
  store ptr %14, ptr %exn.slot, align 8
  %15 = extractvalue { ptr, i32 } %13, 1
  store i32 %15, ptr %ehselector.slot, align 4
  call void @_ZNSt7__cxx1112basic_stringIcSt11char_traitsIcESaIcEED1Ev(ptr noundef nonnull align 8 dereferenceable(32) %ref.tmp) #12
  br label %ehcleanup

ehcleanup:                                        ; preds = %lpad10, %lpad7
  call void @_ZNSt7__cxx1112basic_stringIcSt11char_traitsIcESaIcEED1Ev(ptr noundef nonnull align 8 dereferenceable(32) %ref.tmp5) #12
  br label %ehcleanup13

cleanup:                                          ; preds = %invoke.cont11, %if.then
  call void @_ZNSt7__cxx1112basic_stringIcSt11char_traitsIcESaIcEED1Ev(ptr noundef nonnull align 8 dereferenceable(32) %fbs) #12
  %16 = load i1, ptr %retval, align 1
  ret i1 %16

ehcleanup13:                                      ; preds = %ehcleanup, %lpad
  call void @_ZNSt7__cxx1112basic_stringIcSt11char_traitsIcESaIcEED1Ev(ptr noundef nonnull align 8 dereferenceable(32) %fbs) #12
  br label %eh.resume

eh.resume:                                        ; preds = %ehcleanup13
  %exn = load ptr, ptr %exn.slot, align 8
  %sel = load i32, ptr %ehselector.slot, align 4
  %lpad.val = insertvalue { ptr, i32 } poison, ptr %exn, 0
  %lpad.val14 = insertvalue { ptr, i32 } %lpad.val, i32 %sel, 1
  resume { ptr, i32 } %lpad.val14
}

; Function Attrs: mustprogress uwtable
define internal noundef i32 @_ZN11flatbuffers12_GLOBAL__N_116FBSCodeGenerator12GenerateCodeERKNS_6ParserERKNSt7__cxx1112basic_stringIcSt11char_traitsIcESaIcEEESC_(ptr noundef nonnull align 8 dereferenceable(41) %this, ptr noundef nonnull align 8 dereferenceable(1784) %parser, ptr noundef nonnull align 8 dereferenceable(32) %path, ptr noundef nonnull align 8 dereferenceable(32) %filename) unnamed_addr #0 align 2 {
entry:
  %retval = alloca i32, align 4
  %this.addr = alloca ptr, align 8
  %parser.addr = alloca ptr, align 8
  %path.addr = alloca ptr, align 8
  %filename.addr = alloca ptr, align 8
  store ptr %this, ptr %this.addr, align 8
  store ptr %parser, ptr %parser.addr, align 8
  store ptr %path, ptr %path.addr, align 8
  store ptr %filename, ptr %filename.addr, align 8
  %this1 = load ptr, ptr %this.addr, align 8
  %0 = load ptr, ptr %parser.addr, align 8
  %1 = load ptr, ptr %path.addr, align 8
  %2 = load ptr, ptr %filename.addr, align 8
  %no_log_ = getelementptr inbounds %"class.flatbuffers::(anonymous namespace)::FBSCodeGenerator", ptr %this1, i32 0, i32 1
  %3 = load i8, ptr %no_log_, align 8
  %tobool = trunc i8 %3 to i1
  %call = call noundef zeroext i1 @_ZN11flatbuffers12_GLOBAL__N_111GenerateFBSERKNS_6ParserERKNSt7__cxx1112basic_stringIcSt11char_traitsIcESaIcEEESB_b(ptr noundef nonnull align 8 dereferenceable(1784) %0, ptr noundef nonnull align 8 dereferenceable(32) %1, ptr noundef nonnull align 8 dereferenceable(32) %2, i1 noundef zeroext %tobool)
  br i1 %call, label %if.end, label %if.then

if.then:                                          ; preds = %entry
  store i32 1, ptr %retval, align 4
  br label %return

if.end:                                           ; preds = %entry
  store i32 0, ptr %retval, align 4
  br label %return

return:                                           ; preds = %if.end, %if.then
  %4 = load i32, ptr %retval, align 4
  ret i32 %4
}