; Function Attrs: mustprogress uwtable
define internal noundef i32 @_ZN11flatbuffers12_GLOBAL__N_116FBSCodeGenerator12GenerateCodeERKNS_6ParserERKNSt7__cxx1112basic_stringIcSt11char_traitsIcESaIcEEESC_(ptr nocapture noundef nonnull readonly align 8 dereferenceable(41) %this, ptr noundef nonnull align 8 dereferenceable(1784) %parser, ptr noundef nonnull align 8 dereferenceable(32) %path, ptr noundef nonnull align 8 dereferenceable(32) %filename) unnamed_addr #0 align 2 personality ptr @__gxx_personality_v0 {
entry:
  %fbs.i = alloca %"class.std::__cxx11::basic_string", align 8
  %ref.tmp.i = alloca %"class.std::__cxx11::basic_string", align 8
  %ref.tmp5.i = alloca %"class.std::__cxx11::basic_string", align 8
  %no_log_ = getelementptr inbounds i8, ptr %this, i64 40
  %0 = load i8, ptr %no_log_, align 8
  %1 = and i8 %0, 1
  %tobool = icmp ne i8 %1, 0
  call void @llvm.lifetime.start.p0(i64 32, ptr nonnull %fbs.i)
  call void @llvm.lifetime.start.p0(i64 32, ptr nonnull %ref.tmp.i)
  call void @llvm.lifetime.start.p0(i64 32, ptr nonnull %ref.tmp5.i)
  call fastcc void @_ZN11flatbuffers12_GLOBAL__N_111GenerateFBSERKNS_6ParserERKNSt7__cxx1112basic_stringIcSt11char_traitsIcESaIcEEEb(ptr noalias nonnull align 8 %fbs.i, ptr noundef nonnull align 8 dereferenceable(1784) %parser, ptr noundef nonnull align 8 dereferenceable(32) %filename, i1 noundef zeroext %tobool)
  %call.i = call noundef zeroext i1 @_ZNKSt7__cxx1112basic_stringIcSt11char_traitsIcESaIcEE5emptyEv(ptr noundef nonnull align 8 dereferenceable(32) %fbs.i) #22
  br i1 %call.i, label %_ZN11flatbuffers12_GLOBAL__N_111GenerateFBSERKNS_6ParserERKNSt7__cxx1112basic_stringIcSt11char_traitsIcESaIcEEESB_b.exit.thread, label %if.end.i

_ZN11flatbuffers12_GLOBAL__N_111GenerateFBSERKNS_6ParserERKNSt7__cxx1112basic_stringIcSt11char_traitsIcESaIcEEESB_b.exit.thread: ; preds = %entry
  call void @_ZNSt7__cxx1112basic_stringIcSt11char_traitsIcESaIcEED1Ev(ptr noundef nonnull align 8 dereferenceable(32) %fbs.i) #22
  call void @llvm.lifetime.end.p0(i64 32, ptr nonnull %fbs.i)
  call void @llvm.lifetime.end.p0(i64 32, ptr nonnull %ref.tmp.i)
  call void @llvm.lifetime.end.p0(i64 32, ptr nonnull %ref.tmp5.i)
  br label %8

if.end.i:                                         ; preds = %entry
  br i1 %tobool, label %if.end4.i, label %if.then2.i

if.then2.i:                                       ; preds = %if.end.i
  %2 = load ptr, ptr @stderr, align 8
  %3 = call i64 @fwrite(ptr nonnull @.str, i64 97, i64 1, ptr %2) #24
  br label %if.end4.i

lpad.i:                                           ; preds = %if.end4.i
  %4 = landingpad { ptr, i32 }
          cleanup
  br label %ehcleanup13.i

if.end4.i:                                        ; preds = %if.then2.i, %if.end.i
  invoke void @_ZNSt7__cxx1112basic_stringIcSt11char_traitsIcESaIcEEC1ERKS4_(ptr noundef nonnull align 8 dereferenceable(32) %ref.tmp5.i, ptr noundef nonnull align 8 dereferenceable(32) %path)
          to label %.noexc.i unwind label %lpad.i

.noexc.i:                                         ; preds = %if.end4.i
  %call.i.i = invoke noundef nonnull align 8 dereferenceable(32) ptr @_ZNSt7__cxx1112basic_stringIcSt11char_traitsIcESaIcEE6appendERKS4_(ptr noundef nonnull align 8 dereferenceable(32) %ref.tmp5.i, ptr noundef nonnull align 8 dereferenceable(32) %filename)
          to label %invoke.cont6.i unwind label %lpad.i.i

lpad.i.i:                                         ; preds = %.noexc.i
  %5 = landingpad { ptr, i32 }
          cleanup
  call void @_ZNSt7__cxx1112basic_stringIcSt11char_traitsIcESaIcEED1Ev(ptr noundef nonnull align 8 dereferenceable(32) %ref.tmp5.i) #22
  br label %ehcleanup13.i

invoke.cont6.i:                                   ; preds = %.noexc.i
  %call.i56.i = invoke noundef nonnull align 8 dereferenceable(32) ptr @_ZNSt7__cxx1112basic_stringIcSt11char_traitsIcESaIcEE6appendEPKc(ptr noundef nonnull align 8 dereferenceable(32) %ref.tmp5.i, ptr noundef nonnull @.str.1)
          to label %invoke.cont8.i unwind label %lpad7.i

invoke.cont8.i:                                   ; preds = %invoke.cont6.i
  call void @_ZNSt7__cxx1112basic_stringIcSt11char_traitsIcESaIcEEC1EOS4_(ptr noundef nonnull align 8 dereferenceable(32) %ref.tmp.i, ptr noundef nonnull align 8 dereferenceable(32) %call.i56.i) #22
  %call9.i = call noundef ptr @_ZNKSt7__cxx1112basic_stringIcSt11char_traitsIcESaIcEE5c_strEv(ptr noundef nonnull align 8 dereferenceable(32) %ref.tmp.i) #22
  %call.i7.i = call noundef ptr @_ZNKSt7__cxx1112basic_stringIcSt11char_traitsIcESaIcEE5c_strEv(ptr noundef nonnull align 8 dereferenceable(32) %fbs.i) #22
  %call1.i.i = call noundef i64 @_ZNKSt7__cxx1112basic_stringIcSt11char_traitsIcESaIcEE4sizeEv(ptr noundef nonnull align 8 dereferenceable(32) %fbs.i) #22
  %call2.i8.i = invoke noundef zeroext i1 @_ZN11flatbuffers8SaveFileEPKcS1_mb(ptr noundef %call9.i, ptr noundef %call.i7.i, i64 noundef %call1.i.i, i1 noundef zeroext false)
          to label %_ZN11flatbuffers12_GLOBAL__N_111GenerateFBSERKNS_6ParserERKNSt7__cxx1112basic_stringIcSt11char_traitsIcESaIcEEESB_b.exit unwind label %lpad10.i

lpad7.i:                                          ; preds = %invoke.cont6.i
  %6 = landingpad { ptr, i32 }
          cleanup
  br label %ehcleanup.i

lpad10.i:                                         ; preds = %invoke.cont8.i
  %7 = landingpad { ptr, i32 }
          cleanup
  call void @_ZNSt7__cxx1112basic_stringIcSt11char_traitsIcESaIcEED1Ev(ptr noundef nonnull align 8 dereferenceable(32) %ref.tmp.i) #22
  br label %ehcleanup.i

ehcleanup.i:                                      ; preds = %lpad10.i, %lpad7.i
  %.pn.i = phi { ptr, i32 } [ %7, %lpad10.i ], [ %6, %lpad7.i ]
  call void @_ZNSt7__cxx1112basic_stringIcSt11char_traitsIcESaIcEED1Ev(ptr noundef nonnull align 8 dereferenceable(32) %ref.tmp5.i) #22
  br label %ehcleanup13.i

ehcleanup13.i:                                    ; preds = %ehcleanup.i, %lpad.i.i, %lpad.i
  %.pn.pn.i = phi { ptr, i32 } [ %.pn.i, %ehcleanup.i ], [ %4, %lpad.i ], [ %5, %lpad.i.i ]
  call void @_ZNSt7__cxx1112basic_stringIcSt11char_traitsIcESaIcEED1Ev(ptr noundef nonnull align 8 dereferenceable(32) %fbs.i) #22
  resume { ptr, i32 } %.pn.pn.i

_ZN11flatbuffers12_GLOBAL__N_111GenerateFBSERKNS_6ParserERKNSt7__cxx1112basic_stringIcSt11char_traitsIcESaIcEEESB_b.exit: ; preds = %invoke.cont8.i
  call void @_ZNSt7__cxx1112basic_stringIcSt11char_traitsIcESaIcEED1Ev(ptr noundef nonnull align 8 dereferenceable(32) %ref.tmp.i) #22
  call void @_ZNSt7__cxx1112basic_stringIcSt11char_traitsIcESaIcEED1Ev(ptr noundef nonnull align 8 dereferenceable(32) %ref.tmp5.i) #22
  call void @_ZNSt7__cxx1112basic_stringIcSt11char_traitsIcESaIcEED1Ev(ptr noundef nonnull align 8 dereferenceable(32) %fbs.i) #22
  call void @llvm.lifetime.end.p0(i64 32, ptr nonnull %fbs.i)
  call void @llvm.lifetime.end.p0(i64 32, ptr nonnull %ref.tmp.i)
  call void @llvm.lifetime.end.p0(i64 32, ptr nonnull %ref.tmp5.i)
  %not.call2.i8.i = xor i1 %call2.i8.i, true
  %spec.select = zext i1 %not.call2.i8.i to i32
  br label %8

8:                                                ; preds = %_ZN11flatbuffers12_GLOBAL__N_111GenerateFBSERKNS_6ParserERKNSt7__cxx1112basic_stringIcSt11char_traitsIcESaIcEEESB_b.exit, %_ZN11flatbuffers12_GLOBAL__N_111GenerateFBSERKNS_6ParserERKNSt7__cxx1112basic_stringIcSt11char_traitsIcESaIcEEESB_b.exit.thread
  %9 = phi i32 [ 1, %_ZN11flatbuffers12_GLOBAL__N_111GenerateFBSERKNS_6ParserERKNSt7__cxx1112basic_stringIcSt11char_traitsIcESaIcEEESB_b.exit.thread ], [ %spec.select, %_ZN11flatbuffers12_GLOBAL__N_111GenerateFBSERKNS_6ParserERKNSt7__cxx1112basic_stringIcSt11char_traitsIcESaIcEEESB_b.exit ]
  ret i32 %9
}